target datalayout = "e-m:e-p270:32:32-p271:32:32-p272:64:64-i64:64-i128:128-f80:128-n8:16:32:64-S128"
target triple = "x86_64-pc-linux-gnu"

@.str.3 = private unnamed_addr constant [4 x i8] c"md5\00", align 1
@.str.4 = private unnamed_addr constant [17 x i8] c"0123456789abcdef\00", align 1
@.str.13 = private unnamed_addr constant [70 x i8] c"User \22%s\22 has a password that cannot be used with MD5 authentication.\00", align 1
@.str.14 = private unnamed_addr constant [39 x i8] c"Password does not match for user \22%s\22.\00", align 1

; Function Attrs: nounwind uwtable
define dso_local i32 @get_password_type(ptr noundef %0) #0 {
  %2 = alloca i32, align 4
  %3 = alloca ptr, align 8
  %4 = alloca ptr, align 8
  %5 = alloca i32, align 4
  %6 = alloca i32, align 4
  %7 = alloca i32, align 4
  %8 = alloca [32 x i8], align 16
  %9 = alloca [32 x i8], align 16
  %10 = alloca i32, align 4
  store ptr %0, ptr %3, align 8
  call void @llvm.lifetime.start.p0(i64 8, ptr %4) #6
  call void @llvm.lifetime.start.p0(i64 4, ptr %5) #6
  call void @llvm.lifetime.start.p0(i64 4, ptr %6) #6
  store i32 0, ptr %6, align 4
  call void @llvm.lifetime.start.p0(i64 4, ptr %7) #6
  call void @llvm.lifetime.start.p0(i64 32, ptr %8) #6
  call void @llvm.lifetime.start.p0(i64 32, ptr %9) #6
  %11 = load ptr, ptr %3, align 8
  %12 = call i32 @strncmp(ptr noundef %11, ptr noundef @.str.3, i64 noundef 3) #7
  %13 = icmp eq i32 %12, 0
  br i1 %13, label %14, label %24

14:                                               ; preds = %1
  %15 = load ptr, ptr %3, align 8
  %16 = call i64 @strlen(ptr noundef %15) #7
  %17 = icmp eq i64 %16, 35
  br i1 %17, label %18, label %24

18:                                               ; preds = %14
  %19 = load ptr, ptr %3, align 8
  %20 = getelementptr inbounds i8, ptr %19, i64 3
  %21 = call i64 @strspn(ptr noundef %20, ptr noundef @.str.4) #7
  %22 = icmp eq i64 %21, 32
  br i1 %22, label %23, label %24

23:                                               ; preds = %18
  store i32 1, ptr %2, align 4
  store i32 1, ptr %10, align 4
  br label %31

24:                                               ; preds = %18, %14, %1
  %25 = load ptr, ptr %3, align 8
  %26 = getelementptr inbounds [32 x i8], ptr %8, i64 0, i64 0
  %27 = getelementptr inbounds [32 x i8], ptr %9, i64 0, i64 0
  %28 = call zeroext i1 @parse_scram_secret(ptr noundef %25, ptr noundef %5, ptr noundef %7, ptr noundef %6, ptr noundef %4, ptr noundef %26, ptr noundef %27)
  br i1 %28, label %29, label %30

29:                                               ; preds = %24
  store i32 2, ptr %2, align 4
  store i32 1, ptr %10, align 4
  br label %31

30:                                               ; preds = %24
  store i32 0, ptr %2, align 4
  store i32 1, ptr %10, align 4
  br label %31

31:                                               ; preds = %30, %29, %23
  call void @llvm.lifetime.end.p0(i64 32, ptr %9) #6
  call void @llvm.lifetime.end.p0(i64 32, ptr %8) #6
  call void @llvm.lifetime.end.p0(i64 4, ptr %7) #6
  call void @llvm.lifetime.end.p0(i64 4, ptr %6) #6
  call void @llvm.lifetime.end.p0(i64 4, ptr %5) #6
  call void @llvm.lifetime.end.p0(i64 8, ptr %4) #6
  %32 = load i32, ptr %2, align 4
  ret i32 %32
}

; Function Attrs: nounwind uwtable
define dso_local i32 @md5_crypt_verify(ptr noundef %0, ptr noundef %1, ptr noundef %2, ptr noundef %3, i32 noundef %4, ptr noundef %5) #0 {
  %7 = alloca i32, align 4
  %8 = alloca ptr, align 8
  %9 = alloca ptr, align 8
  %10 = alloca ptr, align 8
  %11 = alloca ptr, align 8
  %12 = alloca i32, align 4
  %13 = alloca ptr, align 8
  %14 = alloca i32, align 4
  %15 = alloca [36 x i8], align 16
  %16 = alloca ptr, align 8
  %17 = alloca i32, align 4
  store ptr %0, ptr %8, align 8
  store ptr %1, ptr %9, align 8
  store ptr %2, ptr %10, align 8
  store ptr %3, ptr %11, align 8
  store i32 %4, ptr %12, align 4
  store ptr %5, ptr %13, align 8
  call void @llvm.lifetime.start.p0(i64 4, ptr %14) #6
  call void @llvm.lifetime.start.p0(i64 36, ptr %15) #6
  call void @llvm.lifetime.start.p0(i64 8, ptr %16) #6
  store ptr null, ptr %16, align 8
  %18 = load ptr, ptr %9, align 8
  %19 = call i32 @get_password_type(ptr noundef %18)
  %20 = icmp ne i32 %19, 1
  br i1 %20, label %21, label %25

21:                                               ; preds = %6
  %22 = load ptr, ptr %8, align 8
  %23 = call ptr (ptr, ...) @psprintf(ptr noundef @.str.13, ptr noundef %22)
  %24 = load ptr, ptr %13, align 8
  store ptr %23, ptr %24, align 8
  store i32 -1, ptr %7, align 4
  store i32 1, ptr %17, align 4
  br label %48

25:                                               ; preds = %6
  %26 = load ptr, ptr %9, align 8
  %27 = getelementptr inbounds nuw i8, ptr %26, i64 3
  %28 = load ptr, ptr %11, align 8
  %29 = load i32, ptr %12, align 4
  %30 = sext i32 %29 to i64
  %31 = getelementptr inbounds [36 x i8], ptr %15, i64 0, i64 0
  %32 = call zeroext i1 @pg_md5_encrypt(ptr noundef %27, ptr noundef %28, i64 noundef %30, ptr noundef %31, ptr noundef %16)
  br i1 %32, label %36, label %33

33:                                               ; preds = %25
  %34 = load ptr, ptr %16, align 8
  %35 = load ptr, ptr %13, align 8
  store ptr %34, ptr %35, align 8
  store i32 -1, ptr %7, align 4
  store i32 1, ptr %17, align 4
  br label %48

36:                                               ; preds = %25
  %37 = load ptr, ptr %10, align 8
  %38 = getelementptr inbounds [36 x i8], ptr %15, i64 0, i64 0
  %39 = call i32 @strcmp(ptr noundef %37, ptr noundef %38) #7
  %40 = icmp eq i32 %39, 0
  br i1 %40, label %41, label %42

41:                                               ; preds = %36
  store i32 0, ptr %14, align 4
  br label %46

42:                                               ; preds = %36
  %43 = load ptr, ptr %8, align 8
  %44 = call ptr (ptr, ...) @psprintf(ptr noundef @.str.14, ptr noundef %43)
  %45 = load ptr, ptr %13, align 8
  store ptr %44, ptr %45, align 8
  store i32 -1, ptr %14, align 4
  br label %46

46:                                               ; preds = %42, %41
  %47 = load i32, ptr %14, align 4
  store i32 %47, ptr %7, align 4
  store i32 1, ptr %17, align 4
  br label %48

48:                                               ; preds = %46, %33, %21
  call void @llvm.lifetime.end.p0(i64 8, ptr %16) #6
  call void @llvm.lifetime.end.p0(i64 36, ptr %15) #6
  call void @llvm.lifetime.end.p0(i64 4, ptr %14) #6
  %49 = load i32, ptr %7, align 4
  ret i32 %49
}