; Function Attrs: nounwind uwtable
define dso_local range(i32 -1, 1) i32 @md5_crypt_verify(ptr noundef %0, ptr noundef %1, ptr noundef readonly captures(none) %2, ptr noundef %3, i32 noundef %4, ptr noundef writeonly captures(none) %5) local_unnamed_addr #0 {
  %7 = alloca ptr, align 8
  %8 = alloca i32, align 4
  %9 = alloca i32, align 4
  %10 = alloca i32, align 4
  %11 = alloca [32 x i8], align 16
  %12 = alloca [32 x i8], align 16
  %13 = alloca [36 x i8], align 16
  %14 = alloca ptr, align 8
  call void @llvm.lifetime.start.p0(i64 36, ptr nonnull %13) #6
  call void @llvm.lifetime.start.p0(i64 8, ptr nonnull %14) #6
  store ptr null, ptr %14, align 8
  call void @llvm.lifetime.start.p0(i64 8, ptr nonnull %7) #6
  call void @llvm.lifetime.start.p0(i64 4, ptr nonnull %8) #6
  call void @llvm.lifetime.start.p0(i64 4, ptr nonnull %9) #6
  store i32 0, ptr %9, align 4
  call void @llvm.lifetime.start.p0(i64 4, ptr nonnull %10) #6
  call void @llvm.lifetime.start.p0(i64 32, ptr nonnull %11) #6
  call void @llvm.lifetime.start.p0(i64 32, ptr nonnull %12) #6
  %15 = load i8, ptr %1, align 1
  %.not.i = icmp eq i8 %15, 109
  br i1 %.not.i, label %sub_1.i, label %get_password_type.exit

sub_1.i:                                          ; preds = %6
  %16 = getelementptr inbounds nuw i8, ptr %1, i64 1
  %17 = load i8, ptr %16, align 1
  %.not4.i = icmp eq i8 %17, 100
  br i1 %.not4.i, label %.tail.i, label %get_password_type.exit

.tail.i:                                          ; preds = %sub_1.i
  %18 = getelementptr inbounds nuw i8, ptr %1, i64 2
  %19 = load i8, ptr %18, align 1
  %20 = icmp eq i8 %19, 53
  br i1 %20, label %21, label %get_password_type.exit

21:                                               ; preds = %.tail.i
  %22 = tail call i64 @strlen(ptr noundef nonnull dereferenceable(1) %1) #7
  %23 = icmp eq i64 %22, 35
  br i1 %23, label %24, label %get_password_type.exit

24:                                               ; preds = %21
  %25 = getelementptr inbounds nuw i8, ptr %1, i64 3
  %26 = tail call i64 @strspn(ptr noundef nonnull %25, ptr noundef nonnull @.str.4) #7
  %27 = icmp eq i64 %26, 32
  br i1 %27, label %get_password_type.exit.thread, label %get_password_type.exit

get_password_type.exit.thread:                    ; preds = %24
  call void @llvm.lifetime.end.p0(i64 32, ptr nonnull %12) #6
  call void @llvm.lifetime.end.p0(i64 32, ptr nonnull %11) #6
  call void @llvm.lifetime.end.p0(i64 4, ptr nonnull %10) #6
  call void @llvm.lifetime.end.p0(i64 4, ptr nonnull %9) #6
  call void @llvm.lifetime.end.p0(i64 4, ptr nonnull %8) #6
  call void @llvm.lifetime.end.p0(i64 8, ptr nonnull %7) #6
  %28 = sext i32 %4 to i64
  %29 = call zeroext i1 @pg_md5_encrypt(ptr noundef nonnull %25, ptr noundef %3, i64 noundef %28, ptr noundef nonnull %13, ptr noundef nonnull %14) #6
  br i1 %29, label %34, label %32

get_password_type.exit:                           ; preds = %6, %sub_1.i, %.tail.i, %21, %24
  %30 = call zeroext i1 @parse_scram_secret(ptr noundef nonnull %1, ptr noundef nonnull %8, ptr noundef nonnull %10, ptr noundef nonnull %9, ptr noundef nonnull %7, ptr noundef nonnull %11, ptr noundef nonnull %12) #6
  call void @llvm.lifetime.end.p0(i64 32, ptr nonnull %12) #6
  call void @llvm.lifetime.end.p0(i64 32, ptr nonnull %11) #6
  call void @llvm.lifetime.end.p0(i64 4, ptr nonnull %10) #6
  call void @llvm.lifetime.end.p0(i64 4, ptr nonnull %9) #6
  call void @llvm.lifetime.end.p0(i64 4, ptr nonnull %8) #6
  call void @llvm.lifetime.end.p0(i64 8, ptr nonnull %7) #6
  %31 = call ptr (ptr, ...) @psprintf(ptr noundef nonnull @.str.13, ptr noundef %0) #6
  br label %.sink.split

32:                                               ; preds = %get_password_type.exit.thread
  %33 = load ptr, ptr %14, align 8
  br label %.sink.split

34:                                               ; preds = %get_password_type.exit.thread
  %35 = call i32 @strcmp(ptr noundef nonnull dereferenceable(1) %2, ptr noundef nonnull dereferenceable(1) %13) #7
  %36 = icmp eq i32 %35, 0
  br i1 %36, label %39, label %37

37:                                               ; preds = %34
  %38 = call ptr (ptr, ...) @psprintf(ptr noundef nonnull @.str.14, ptr noundef %0) #6
  br label %.sink.split

.sink.split:                                      ; preds = %get_password_type.exit, %32, %37
  %.sink = phi ptr [ %38, %37 ], [ %33, %32 ], [ %31, %get_password_type.exit ]
  store ptr %.sink, ptr %5, align 8
  br label %39

39:                                               ; preds = %.sink.split, %34
  %.011 = phi i32 [ 0, %34 ], [ -1, %.sink.split ]
  call void @llvm.lifetime.end.p0(i64 8, ptr nonnull %14) #6
  call void @llvm.lifetime.end.p0(i64 36, ptr nonnull %13) #6
  ret i32 %.011
}